#include <math.h>
#include <stdio.h>
#include <stdlib.h>
#include <string.h>

int main()
{
	int sz[100][100];
	int row,col;
	scanf("%d%d",&row,&col);
	for(int i=0;i<row;i++)
	{
		for(int j=0;j<col;j++)
		{
			scanf("%d",&sz[i][j]);
		}
	}
	for(int k=0;k<=row+col-2;k++)
	{
		if((k<=col-1)&&(k<=row-1))
		{
			for(int l=0;l<=k;l++)
		{
			printf("%d\n",sz[l][k-l]);
		}
	}
		else if((k<=col-1)&&(k>row-1))
		{
			for(int m=0;m<=row-1;m++)
			{
				printf("%d\n",sz[m][k-m]);
			}
		}
	else if((k>col-1)&&(k<=row-1))
	{
		for(int t=k-col+1;t<=k;t++)
		{
			printf("%d\n",sz[t][k-t]);
		}
	}
	else if((k>col-1)&&(k>row-1))
	{
		for(int p=k-col+1;p<=row-1;p++)
		{
			printf("%d\n",sz[p][k-p]);
		}
	}
	}
	return 0;
}