; ModuleID = '4/1330.c'
source_filename = "4/1330.c"
target datalayout = "e-m:e-p270:32:32-p271:32:32-p272:64:64-i64:64-f80:128-n8:16:32:64-S128"
target triple = "x86_64-pc-linux-gnu"

@.str = private unnamed_addr constant [5 x i8] c"%d%d\00", align 1
@.str.1 = private unnamed_addr constant [3 x i8] c"%d\00", align 1
@.str.2 = private unnamed_addr constant [4 x i8] c"%d\0A\00", align 1

; Function Attrs: noinline nounwind uwtable
define dso_local i32 @main() #0 {
  %1 = alloca i32, align 4
  %2 = alloca [100 x [100 x i32]], align 16
  %3 = alloca i32, align 4
  %4 = alloca i32, align 4
  %5 = alloca i32, align 4
  %6 = alloca i32, align 4
  %7 = alloca i32, align 4
  %8 = alloca i32, align 4
  %9 = alloca i32, align 4
  %10 = alloca i32, align 4
  %11 = alloca i32, align 4
  store i32 0, i32* %1, align 4
  %12 = call i32 (i8*, ...) @__isoc99_scanf(i8* getelementptr inbounds ([5 x i8], [5 x i8]* @.str, i64 0, i64 0), i32* %3, i32* %4)
  store i32 0, i32* %5, align 4
  br label %13

13:                                               ; preds = %34, %0
  %14 = load i32, i32* %5, align 4
  %15 = load i32, i32* %3, align 4
  %16 = icmp slt i32 %14, %15
  br i1 %16, label %17, label %37

17:                                               ; preds = %13
  store i32 0, i32* %6, align 4
  br label %18

18:                                               ; preds = %30, %17
  %19 = load i32, i32* %6, align 4
  %20 = load i32, i32* %4, align 4
  %21 = icmp slt i32 %19, %20
  br i1 %21, label %22, label %33

22:                                               ; preds = %18
  %23 = load i32, i32* %5, align 4
  %24 = sext i32 %23 to i64
  %25 = getelementptr inbounds [100 x [100 x i32]], [100 x [100 x i32]]* %2, i64 0, i64 %24
  %26 = load i32, i32* %6, align 4
  %27 = sext i32 %26 to i64
  %28 = getelementptr inbounds [100 x i32], [100 x i32]* %25, i64 0, i64 %27
  %29 = call i32 (i8*, ...) @__isoc99_scanf(i8* getelementptr inbounds ([3 x i8], [3 x i8]* @.str.1, i64 0, i64 0), i32* %28)
  br label %30

30:                                               ; preds = %22
  %31 = load i32, i32* %6, align 4
  %32 = add nsw i32 %31, 1
  store i32 %32, i32* %6, align 4
  br label %18

33:                                               ; preds = %18
  br label %34

34:                                               ; preds = %33
  %35 = load i32, i32* %5, align 4
  %36 = add nsw i32 %35, 1
  store i32 %36, i32* %5, align 4
  br label %13

37:                                               ; preds = %13
  store i32 0, i32* %7, align 4
  br label %38

38:                                               ; preds = %179, %37
  %39 = load i32, i32* %7, align 4
  %40 = load i32, i32* %3, align 4
  %41 = load i32, i32* %4, align 4
  %42 = add nsw i32 %40, %41
  %43 = sub nsw i32 %42, 2
  %44 = icmp sle i32 %39, %43
  br i1 %44, label %45, label %182

45:                                               ; preds = %38
  %46 = load i32, i32* %7, align 4
  %47 = load i32, i32* %4, align 4
  %48 = sub nsw i32 %47, 1
  %49 = icmp sle i32 %46, %48
  br i1 %49, label %50, label %75

50:                                               ; preds = %45
  %51 = load i32, i32* %7, align 4
  %52 = load i32, i32* %3, align 4
  %53 = sub nsw i32 %52, 1
  %54 = icmp sle i32 %51, %53
  br i1 %54, label %55, label %75

55:                                               ; preds = %50
  store i32 0, i32* %8, align 4
  br label %56

56:                                               ; preds = %71, %55
  %57 = load i32, i32* %8, align 4
  %58 = load i32, i32* %7, align 4
  %59 = icmp sle i32 %57, %58
  br i1 %59, label %60, label %74

60:                                               ; preds = %56
  %61 = load i32, i32* %8, align 4
  %62 = sext i32 %61 to i64
  %63 = getelementptr inbounds [100 x [100 x i32]], [100 x [100 x i32]]* %2, i64 0, i64 %62
  %64 = load i32, i32* %7, align 4
  %65 = load i32, i32* %8, align 4
  %66 = sub nsw i32 %64, %65
  %67 = sext i32 %66 to i64
  %68 = getelementptr inbounds [100 x i32], [100 x i32]* %63, i64 0, i64 %67
  %69 = load i32, i32* %68, align 4
  %70 = call i32 (i8*, ...) @printf(i8* getelementptr inbounds ([4 x i8], [4 x i8]* @.str.2, i64 0, i64 0), i32 %69)
  br label %71

71:                                               ; preds = %60
  %72 = load i32, i32* %8, align 4
  %73 = add nsw i32 %72, 1
  store i32 %73, i32* %8, align 4
  br label %56

74:                                               ; preds = %56
  br label %178

75:                                               ; preds = %50, %45
  %76 = load i32, i32* %7, align 4
  %77 = load i32, i32* %4, align 4
  %78 = sub nsw i32 %77, 1
  %79 = icmp sle i32 %76, %78
  br i1 %79, label %80, label %106

80:                                               ; preds = %75
  %81 = load i32, i32* %7, align 4
  %82 = load i32, i32* %3, align 4
  %83 = sub nsw i32 %82, 1
  %84 = icmp sgt i32 %81, %83
  br i1 %84, label %85, label %106

85:                                               ; preds = %80
  store i32 0, i32* %9, align 4
  br label %86

86:                                               ; preds = %102, %85
  %87 = load i32, i32* %9, align 4
  %88 = load i32, i32* %3, align 4
  %89 = sub nsw i32 %88, 1
  %90 = icmp sle i32 %87, %89
  br i1 %90, label %91, label %105

91:                                               ; preds = %86
  %92 = load i32, i32* %9, align 4
  %93 = sext i32 %92 to i64
  %94 = getelementptr inbounds [100 x [100 x i32]], [100 x [100 x i32]]* %2, i64 0, i64 %93
  %95 = load i32, i32* %7, align 4
  %96 = load i32, i32* %9, align 4
  %97 = sub nsw i32 %95, %96
  %98 = sext i32 %97 to i64
  %99 = getelementptr inbounds [100 x i32], [100 x i32]* %94, i64 0, i64 %98
  %100 = load i32, i32* %99, align 4
  %101 = call i32 (i8*, ...) @printf(i8* getelementptr inbounds ([4 x i8], [4 x i8]* @.str.2, i64 0, i64 0), i32 %100)
  br label %102

102:                                              ; preds = %91
  %103 = load i32, i32* %9, align 4
  %104 = add nsw i32 %103, 1
  store i32 %104, i32* %9, align 4
  br label %86

105:                                              ; preds = %86
  br label %177

106:                                              ; preds = %80, %75
  %107 = load i32, i32* %7, align 4
  %108 = load i32, i32* %4, align 4
  %109 = sub nsw i32 %108, 1
  %110 = icmp sgt i32 %107, %109
  br i1 %110, label %111, label %140

111:                                              ; preds = %106
  %112 = load i32, i32* %7, align 4
  %113 = load i32, i32* %3, align 4
  %114 = sub nsw i32 %113, 1
  %115 = icmp sle i32 %112, %114
  br i1 %115, label %116, label %140

116:                                              ; preds = %111
  %117 = load i32, i32* %7, align 4
  %118 = load i32, i32* %4, align 4
  %119 = sub nsw i32 %117, %118
  %120 = add nsw i32 %119, 1
  store i32 %120, i32* %10, align 4
  br label %121

121:                                              ; preds = %136, %116
  %122 = load i32, i32* %10, align 4
  %123 = load i32, i32* %7, align 4
  %124 = icmp sle i32 %122, %123
  br i1 %124, label %125, label %139

125:                                              ; preds = %121
  %126 = load i32, i32* %10, align 4
  %127 = sext i32 %126 to i64
  %128 = getelementptr inbounds [100 x [100 x i32]], [100 x [100 x i32]]* %2, i64 0, i64 %127
  %129 = load i32, i32* %7, align 4
  %130 = load i32, i32* %10, align 4
  %131 = sub nsw i32 %129, %130
  %132 = sext i32 %131 to i64
  %133 = getelementptr inbounds [100 x i32], [100 x i32]* %128, i64 0, i64 %132
  %134 = load i32, i32* %133, align 4
  %135 = call i32 (i8*, ...) @printf(i8* getelementptr inbounds ([4 x i8], [4 x i8]* @.str.2, i64 0, i64 0), i32 %134)
  br label %136

136:                                              ; preds = %125
  %137 = load i32, i32* %10, align 4
  %138 = add nsw i32 %137, 1
  store i32 %138, i32* %10, align 4
  br label %121

139:                                              ; preds = %121
  br label %176

140:                                              ; preds = %111, %106
  %141 = load i32, i32* %7, align 4
  %142 = load i32, i32* %4, align 4
  %143 = sub nsw i32 %142, 1
  %144 = icmp sgt i32 %141, %143
  br i1 %144, label %145, label %175

145:                                              ; preds = %140
  %146 = load i32, i32* %7, align 4
  %147 = load i32, i32* %3, align 4
  %148 = sub nsw i32 %147, 1
  %149 = icmp sgt i32 %146, %148
  br i1 %149, label %150, label %175

150:                                              ; preds = %145
  %151 = load i32, i32* %7, align 4
  %152 = load i32, i32* %4, align 4
  %153 = sub nsw i32 %151, %152
  %154 = add nsw i32 %153, 1
  store i32 %154, i32* %11, align 4
  br label %155

155:                                              ; preds = %171, %150
  %156 = load i32, i32* %11, align 4
  %157 = load i32, i32* %3, align 4
  %158 = sub nsw i32 %157, 1
  %159 = icmp sle i32 %156, %158
  br i1 %159, label %160, label %174

160:                                              ; preds = %155
  %161 = load i32, i32* %11, align 4
  %162 = sext i32 %161 to i64
  %163 = getelementptr inbounds [100 x [100 x i32]], [100 x [100 x i32]]* %2, i64 0, i64 %162
  %164 = load i32, i32* %7, align 4
  %165 = load i32, i32* %11, align 4
  %166 = sub nsw i32 %164, %165
  %167 = sext i32 %166 to i64
  %168 = getelementptr inbounds [100 x i32], [100 x i32]* %163, i64 0, i64 %167
  %169 = load i32, i32* %168, align 4
  %170 = call i32 (i8*, ...) @printf(i8* getelementptr inbounds ([4 x i8], [4 x i8]* @.str.2, i64 0, i64 0), i32 %169)
  br label %171

171:                                              ; preds = %160
  %172 = load i32, i32* %11, align 4
  %173 = add nsw i32 %172, 1
  store i32 %173, i32* %11, align 4
  br label %155

174:                                              ; preds = %155
  br label %175

175:                                              ; preds = %174, %145, %140
  br label %176

176:                                              ; preds = %175, %139
  br label %177

177:                                              ; preds = %176, %105
  br label %178

178:                                              ; preds = %177, %74
  br label %179

179:                                              ; preds = %178
  %180 = load i32, i32* %7, align 4
  %181 = add nsw i32 %180, 1
  store i32 %181, i32* %7, align 4
  br label %38

182:                                              ; preds = %38
  ret i32 0
}

declare dso_local i32 @__isoc99_scanf(i8*, ...) #1

declare dso_local i32 @printf(i8*, ...) #1


!llvm.module.flags = !{!0}
!llvm.ident = !{!1}

!0 = !{i32 1, !"wchar_size", i32 4}
!1 = !{!"clang version 10.0.0-4ubuntu1 "}
